; Function Attrs: mustprogress uwtable
define hidden noundef zeroext i1 @_ZN4cvc58internal6theory11quantifiers11Instantiate16addInstantiationENS0_12NodeTemplateILb1EEERSt6vectorIS5_SaIS5_EENS1_11InferenceIdES5_b(ptr noundef nonnull align 8 dereferenceable(472) %0, ptr noundef readonly captures(none) %1, ptr noundef nonnull align 8 dereferenceable(24) %2, i32 noundef %3, ptr noundef readonly captures(none) %4, i1 noundef zeroext %5) local_unnamed_addr #3 align 2 personality ptr @__gxx_personality_v0 {
  %7 = alloca %"class.cvc5::internal::NodeTemplate", align 8
  %8 = alloca %"class.cvc5::internal::NodeTemplate", align 8
  %9 = alloca %"class.cvc5::internal::NodeTemplate", align 8
  %10 = load ptr, ptr %1, align 8, !tbaa !78
  store ptr %10, ptr %7, align 8, !tbaa !78
  %11 = load i64, ptr %10, align 8
  %12 = lshr i64 %11, 40
  %13 = trunc nuw nsw i64 %12 to i32
  %14 = and i32 %13, 1048575
  %15 = icmp samesign ult i32 %14, 1048574
  br i1 %15, label %16, label %21, !prof !79

16:                                               ; preds = %6
  %17 = add i64 %11, 1099511627776
  %18 = and i64 %17, 1152920405095219200
  %19 = and i64 %11, -1152920405095219201
  %20 = or disjoint i64 %18, %19
  store i64 %20, ptr %10, align 8
  br label %_ZN4cvc58internal12NodeTemplateILb1EEC2ERKS2_.exit

21:                                               ; preds = %6
  %22 = icmp eq i32 %14, 1048574
  br i1 %22, label %23, label %_ZN4cvc58internal12NodeTemplateILb1EEC2ERKS2_.exit, !prof !80

23:                                               ; preds = %21
  %24 = or i64 %11, 1152920405095219200
  store i64 %24, ptr %10, align 8
  tail call void @_ZN4cvc58internal4expr9NodeValue20markRefCountMaxedOutEv(ptr noundef nonnull align 8 dereferenceable(24) %10)
  br label %_ZN4cvc58internal12NodeTemplateILb1EEC2ERKS2_.exit

_ZN4cvc58internal12NodeTemplateILb1EEC2ERKS2_.exit: ; preds = %16, %21, %23
  %25 = load ptr, ptr %4, align 8, !tbaa !78
  store ptr %25, ptr %8, align 8, !tbaa !78
  %26 = load i64, ptr %25, align 8
  %27 = lshr i64 %26, 40
  %28 = trunc nuw nsw i64 %27 to i32
  %29 = and i32 %28, 1048575
  %30 = icmp samesign ult i32 %29, 1048574
  br i1 %30, label %31, label %36, !prof !79

31:                                               ; preds = %_ZN4cvc58internal12NodeTemplateILb1EEC2ERKS2_.exit
  %32 = add i64 %26, 1099511627776
  %33 = and i64 %32, 1152920405095219200
  %34 = and i64 %26, -1152920405095219201
  %35 = or disjoint i64 %33, %34
  store i64 %35, ptr %25, align 8
  br label %_ZN4cvc58internal12NodeTemplateILb1EEC2ERKS2_.exit13

36:                                               ; preds = %_ZN4cvc58internal12NodeTemplateILb1EEC2ERKS2_.exit
  %37 = icmp eq i32 %29, 1048574
  br i1 %37, label %38, label %_ZN4cvc58internal12NodeTemplateILb1EEC2ERKS2_.exit13, !prof !80

38:                                               ; preds = %36
  %39 = or i64 %26, 1152920405095219200
  store i64 %39, ptr %25, align 8
  invoke void @_ZN4cvc58internal4expr9NodeValue20markRefCountMaxedOutEv(ptr noundef nonnull align 8 dereferenceable(24) %25)
          to label %_ZN4cvc58internal12NodeTemplateILb1EEC2ERKS2_.exit13 unwind label %98

_ZN4cvc58internal12NodeTemplateILb1EEC2ERKS2_.exit13: ; preds = %36, %31, %38
  %40 = invoke noundef zeroext i1 @_ZN4cvc58internal6theory11quantifiers11Instantiate24addInstantiationInternalENS0_12NodeTemplateILb1EEERSt6vectorIS5_SaIS5_EENS1_11InferenceIdES5_b(ptr noundef nonnull align 8 dereferenceable(472) %0, ptr noundef nonnull %7, ptr noundef nonnull align 8 dereferenceable(24) %2, i32 noundef %3, ptr noundef nonnull %8, i1 noundef zeroext %5)
          to label %41 unwind label %100

41:                                               ; preds = %_ZN4cvc58internal12NodeTemplateILb1EEC2ERKS2_.exit13
  %42 = load i64, ptr %25, align 8
  %43 = and i64 %42, 1152920405095219200
  %.not.i.i = icmp eq i64 %43, 1152920405095219200
  br i1 %.not.i.i, label %_ZN4cvc58internal12NodeTemplateILb1EED2Ev.exit, label %44, !prof !80

44:                                               ; preds = %41
  %45 = add i64 %42, 1152920405095219200
  %46 = and i64 %45, 1152920405095219200
  %47 = and i64 %42, -1152920405095219201
  %48 = or disjoint i64 %46, %47
  store i64 %48, ptr %25, align 8
  %49 = icmp eq i64 %46, 0
  br i1 %49, label %50, label %_ZN4cvc58internal12NodeTemplateILb1EED2Ev.exit, !prof !80

50:                                               ; preds = %44
  invoke void @_ZN4cvc58internal4expr9NodeValue15markForDeletionEv(ptr noundef nonnull align 8 dereferenceable(24) %25)
          to label %_ZN4cvc58internal12NodeTemplateILb1EED2Ev.exit unwind label %51

51:                                               ; preds = %50
  %52 = landingpad { ptr, i32 }
          catch ptr null
  %53 = extractvalue { ptr, i32 } %52, 0
  call void @__clang_call_terminate(ptr %53) #30
  unreachable

_ZN4cvc58internal12NodeTemplateILb1EED2Ev.exit:   ; preds = %41, %44, %50
  %54 = load ptr, ptr %7, align 8, !tbaa !78
  %55 = load i64, ptr %54, align 8
  %56 = and i64 %55, 1152920405095219200
  %.not.i.i14 = icmp eq i64 %56, 1152920405095219200
  br i1 %.not.i.i14, label %_ZN4cvc58internal12NodeTemplateILb1EED2Ev.exit15, label %57, !prof !80

57:                                               ; preds = %_ZN4cvc58internal12NodeTemplateILb1EED2Ev.exit
  %58 = add i64 %55, 1152920405095219200
  %59 = and i64 %58, 1152920405095219200
  %60 = and i64 %55, -1152920405095219201
  %61 = or disjoint i64 %59, %60
  store i64 %61, ptr %54, align 8
  %62 = icmp eq i64 %59, 0
  br i1 %62, label %63, label %_ZN4cvc58internal12NodeTemplateILb1EED2Ev.exit15, !prof !80

63:                                               ; preds = %57
  invoke void @_ZN4cvc58internal4expr9NodeValue15markForDeletionEv(ptr noundef nonnull align 8 dereferenceable(24) %54)
          to label %_ZN4cvc58internal12NodeTemplateILb1EED2Ev.exit15 unwind label %64

64:                                               ; preds = %63
  %65 = landingpad { ptr, i32 }
          catch ptr null
  %66 = extractvalue { ptr, i32 } %65, 0
  call void @__clang_call_terminate(ptr %66) #30
  unreachable

_ZN4cvc58internal12NodeTemplateILb1EED2Ev.exit15: ; preds = %_ZN4cvc58internal12NodeTemplateILb1EED2Ev.exit, %57, %63
  %67 = getelementptr inbounds nuw i8, ptr %0, i64 72
  %68 = load ptr, ptr %67, align 8, !tbaa !81
  %69 = load ptr, ptr %1, align 8, !tbaa !78
  store ptr %69, ptr %9, align 8, !tbaa !78
  %70 = load i64, ptr %69, align 8
  %71 = lshr i64 %70, 40
  %72 = trunc nuw nsw i64 %71 to i32
  %73 = and i32 %72, 1048575
  %74 = icmp samesign ult i32 %73, 1048574
  br i1 %74, label %75, label %80, !prof !79

75:                                               ; preds = %_ZN4cvc58internal12NodeTemplateILb1EED2Ev.exit15
  %76 = add i64 %70, 1099511627776
  %77 = and i64 %76, 1152920405095219200
  %78 = and i64 %70, -1152920405095219201
  %79 = or disjoint i64 %77, %78
  store i64 %79, ptr %69, align 8
  br label %_ZN4cvc58internal12NodeTemplateILb1EEC2ERKS2_.exit16

80:                                               ; preds = %_ZN4cvc58internal12NodeTemplateILb1EED2Ev.exit15
  %81 = icmp eq i32 %73, 1048574
  br i1 %81, label %82, label %_ZN4cvc58internal12NodeTemplateILb1EEC2ERKS2_.exit16, !prof !80

82:                                               ; preds = %80
  %83 = or i64 %70, 1152920405095219200
  store i64 %83, ptr %69, align 8
  call void @_ZN4cvc58internal4expr9NodeValue20markRefCountMaxedOutEv(ptr noundef nonnull align 8 dereferenceable(24) %69)
  br label %_ZN4cvc58internal12NodeTemplateILb1EEC2ERKS2_.exit16

_ZN4cvc58internal12NodeTemplateILb1EEC2ERKS2_.exit16: ; preds = %75, %80, %82
  invoke void @_ZN4cvc58internal6theory11quantifiers12TermRegistry20processInstantiationENS0_12NodeTemplateILb1EEERKSt6vectorIS5_SaIS5_EEb(ptr noundef nonnull align 8 dereferenceable(104) %68, ptr noundef nonnull %9, ptr noundef nonnull align 8 dereferenceable(24) %2, i1 noundef zeroext %40)
          to label %84 unwind label %102

84:                                               ; preds = %_ZN4cvc58internal12NodeTemplateILb1EEC2ERKS2_.exit16
  %85 = load ptr, ptr %9, align 8, !tbaa !78
  %86 = load i64, ptr %85, align 8
  %87 = and i64 %86, 1152920405095219200
  %.not.i.i17 = icmp eq i64 %87, 1152920405095219200
  br i1 %.not.i.i17, label %_ZN4cvc58internal12NodeTemplateILb1EED2Ev.exit18, label %88, !prof !80

88:                                               ; preds = %84
  %89 = add i64 %86, 1152920405095219200
  %90 = and i64 %89, 1152920405095219200
  %91 = and i64 %86, -1152920405095219201
  %92 = or disjoint i64 %90, %91
  store i64 %92, ptr %85, align 8
  %93 = icmp eq i64 %90, 0
  br i1 %93, label %94, label %_ZN4cvc58internal12NodeTemplateILb1EED2Ev.exit18, !prof !80

94:                                               ; preds = %88
  invoke void @_ZN4cvc58internal4expr9NodeValue15markForDeletionEv(ptr noundef nonnull align 8 dereferenceable(24) %85)
          to label %_ZN4cvc58internal12NodeTemplateILb1EED2Ev.exit18 unwind label %95

95:                                               ; preds = %94
  %96 = landingpad { ptr, i32 }
          catch ptr null
  %97 = extractvalue { ptr, i32 } %96, 0
  call void @__clang_call_terminate(ptr %97) #30
  unreachable

_ZN4cvc58internal12NodeTemplateILb1EED2Ev.exit18: ; preds = %84, %88, %94
  ret i1 %40

98:                                               ; preds = %38
  %99 = landingpad { ptr, i32 }
          cleanup
  br label %104

100:                                              ; preds = %_ZN4cvc58internal12NodeTemplateILb1EEC2ERKS2_.exit13
  %101 = landingpad { ptr, i32 }
          cleanup
  call void @_ZN4cvc58internal12NodeTemplateILb1EED2Ev(ptr noundef nonnull align 8 dereferenceable(8) %8) #29
  br label %104

102:                                              ; preds = %_ZN4cvc58internal12NodeTemplateILb1EEC2ERKS2_.exit16
  %103 = landingpad { ptr, i32 }
          cleanup
  br label %104

104:                                              ; preds = %98, %100, %102
  %.sink = phi ptr [ %9, %102 ], [ %7, %100 ], [ %7, %98 ]
  %.pn11 = phi { ptr, i32 } [ %103, %102 ], [ %101, %100 ], [ %99, %98 ]
  call void @_ZN4cvc58internal12NodeTemplateILb1EED2Ev(ptr noundef nonnull align 8 dereferenceable(8) %.sink) #29
  resume { ptr, i32 } %.pn11
}